target datalayout = "e-m:e-p270:32:32-p271:32:32-p272:64:64-i64:64-i128:128-f80:128-n8:16:32:64-S128"
target triple = "x86_64-pc-linux-gnu"

%struct.evutil_weakrand_state = type { i32 }

; Function Attrs: nounwind uwtable
define i32 @evutil_weakrand_(ptr noundef %0) #0 {
  %2 = alloca ptr, align 8
  store ptr %0, ptr %2, align 8
  %3 = load ptr, ptr %2, align 8
  %4 = getelementptr inbounds nuw %struct.evutil_weakrand_state, ptr %3, i32 0, i32 0
  %5 = load i32, ptr %4, align 4
  %6 = mul i32 %5, 1103515245
  %7 = add i32 %6, 12345
  %8 = and i32 %7, 2147483647
  %9 = load ptr, ptr %2, align 8
  %10 = getelementptr inbounds nuw %struct.evutil_weakrand_state, ptr %9, i32 0, i32 0
  store i32 %8, ptr %10, align 4
  %11 = load ptr, ptr %2, align 8
  %12 = getelementptr inbounds nuw %struct.evutil_weakrand_state, ptr %11, i32 0, i32 0
  %13 = load i32, ptr %12, align 4
  ret i32 %13
}

; Function Attrs: nounwind uwtable
define i32 @evutil_weakrand_range_(ptr noundef %0, i32 noundef %1) #0 {
  %3 = alloca ptr, align 8
  %4 = alloca i32, align 4
  %5 = alloca i32, align 4
  %6 = alloca i32, align 4
  store ptr %0, ptr %3, align 8
  store i32 %1, ptr %4, align 4
  call void @llvm.lifetime.start.p0(i64 4, ptr %5) #11
  call void @llvm.lifetime.start.p0(i64 4, ptr %6) #11
  %7 = load i32, ptr %4, align 4
  %8 = sdiv i32 2147483647, %7
  store i32 %8, ptr %5, align 4
  br label %9

9:                                                ; preds = %14, %2
  %10 = load ptr, ptr %3, align 8
  %11 = call i32 @evutil_weakrand_(ptr noundef %10)
  %12 = load i32, ptr %5, align 4
  %13 = sdiv i32 %11, %12
  store i32 %13, ptr %6, align 4
  br label %14

14:                                               ; preds = %9
  %15 = load i32, ptr %6, align 4
  %16 = load i32, ptr %4, align 4
  %17 = icmp sge i32 %15, %16
  br i1 %17, label %9, label %18, !llvm.loop !22

18:                                               ; preds = %14
  %19 = load i32, ptr %6, align 4
  call void @llvm.lifetime.end.p0(i64 4, ptr %6) #11
  call void @llvm.lifetime.end.p0(i64 4, ptr %5) #11
  ret i32 %19
}