; Function Attrs: nofree norecurse nosync nounwind memory(argmem: readwrite) uwtable
define range(i32 -2147483647, 2147483647) i32 @evutil_weakrand_range_(ptr noundef captures(none) %0, i32 noundef %1) local_unnamed_addr #26 {
  %3 = sdiv i32 2147483647, %1
  %.promoted = load i32, ptr %0, align 4
  br label %4

4:                                                ; preds = %4, %2
  %5 = phi i32 [ %8, %4 ], [ %.promoted, %2 ]
  %6 = mul i32 %5, 1103515245
  %7 = add i32 %6, 12345
  %8 = and i32 %7, 2147483647
  %9 = sdiv i32 %8, %3
  %.not = icmp slt i32 %9, %1
  br i1 %.not, label %10, label %4, !llvm.loop !23

10:                                               ; preds = %4
  store i32 %8, ptr %0, align 4
  ret i32 %9
}